; Function Attrs: nounwind uwtable
define hidden noundef zeroext i1 @_PyObject_TryGetInstanceAttribute(ptr noundef readonly captures(none) %0, ptr noundef %1, ptr noundef writeonly captures(none) %2) local_unnamed_addr #0 {
  %4 = getelementptr i8, ptr %0, i64 8
  %.val.i = load ptr, ptr %4, align 8, !tbaa !25
  %5 = getelementptr inbounds nuw i8, ptr %.val.i, i64 32
  %6 = load i64, ptr %5, align 8, !tbaa !175
  %7 = getelementptr i8, ptr %0, i64 %6
  %8 = getelementptr inbounds nuw i8, ptr %7, i64 3
  %9 = load i8, ptr %8, align 1, !tbaa !46
  %.not = icmp ne i8 %9, 0
  br i1 %.not, label %10, label %30

10:                                               ; preds = %3
  %11 = getelementptr inbounds nuw i8, ptr %.val.i, i64 880
  %12 = load ptr, ptr %11, align 8, !tbaa !217
  %13 = getelementptr i8, ptr %1, i64 24
  %.val.i12 = load i64, ptr %13, align 8, !tbaa !55
  %14 = icmp eq i64 %.val.i12, -1
  br i1 %14, label %15, label %_PyDictKeys_StringLookupSplit.exit

15:                                               ; preds = %10
  %16 = load ptr, ptr getelementptr inbounds nuw (i8, ptr @PyUnicode_Type, i64 120), align 8, !tbaa !139
  %17 = tail call i64 %16(ptr noundef nonnull %1) #23
  %18 = icmp eq i64 %17, -1
  br i1 %18, label %_PyDictKeys_StringLookupSplit.exit.thread, label %_PyDictKeys_StringLookupSplit.exit

_PyDictKeys_StringLookupSplit.exit.thread:        ; preds = %15
  tail call void @PyErr_Clear() #23
  br label %21

_PyDictKeys_StringLookupSplit.exit:               ; preds = %10, %15
  %.0.i = phi i64 [ %17, %15 ], [ %.val.i12, %10 ]
  %19 = tail call fastcc range(i64 -1, -9223372036854775808) i64 @unicodekeys_lookup_unicode(ptr noundef readonly %12, ptr noundef nonnull readonly %1, i64 noundef range(i64 0, -1) %.0.i)
  %20 = icmp eq i64 %19, -1
  br i1 %20, label %_Py_XNewRef.exit, label %21

21:                                               ; preds = %_PyDictKeys_StringLookupSplit.exit.thread, %_PyDictKeys_StringLookupSplit.exit
  %.07.i14 = phi i64 [ -3, %_PyDictKeys_StringLookupSplit.exit.thread ], [ %19, %_PyDictKeys_StringLookupSplit.exit ]
  %22 = getelementptr inbounds nuw i8, ptr %7, i64 8
  %23 = getelementptr [1 x ptr], ptr %22, i64 0, i64 %.07.i14
  %24 = load ptr, ptr %23, align 8, !tbaa !64
  %.not.i.i = icmp eq ptr %24, null
  br i1 %.not.i.i, label %_Py_XNewRef.exit, label %25

25:                                               ; preds = %21
  %26 = load i32, ptr %24, align 8, !tbaa !41
  %27 = icmp slt i32 %26, 0
  br i1 %27, label %_Py_XNewRef.exit, label %28

28:                                               ; preds = %25
  %29 = add nuw i32 %26, 1
  store i32 %29, ptr %24, align 8, !tbaa !41
  br label %_Py_XNewRef.exit

_Py_XNewRef.exit:                                 ; preds = %28, %25, %21, %_PyDictKeys_StringLookupSplit.exit
  %storemerge = phi ptr [ null, %_PyDictKeys_StringLookupSplit.exit ], [ null, %21 ], [ %24, %25 ], [ %24, %28 ]
  store ptr %storemerge, ptr %2, align 8, !tbaa !64
  br label %30

30:                                               ; preds = %3, %_Py_XNewRef.exit
  ret i1 %.not
}